target datalayout = "e-m:e-p270:32:32-p271:32:32-p272:64:64-i64:64-i128:128-f80:128-n8:16:32:64-S128"
target triple = "x86_64-pc-linux-gnu"

@hf_rdm_pd_status_messages_type = internal global i32 0, align 4
@hf_rdm_pd_status_messages_sub_device_id = internal global i32 0, align 4
@hf_rdm_pd_status_messages_id = internal global i32 0, align 4
@hf_rdm_pd_status_messages_data_value_1 = internal global i32 0, align 4
@hf_rdm_pd_status_messages_data_value_2 = internal global i32 0, align 4

; Function Attrs: null_pointer_is_valid sspstrong uwtable
define internal void @rdm_proto_tree_add_numeric_item(ptr noundef %0, i32 noundef %1, ptr noundef %2, ptr noundef %3, i8 noundef zeroext %4) #1 {
  %6 = alloca ptr, align 8
  %7 = alloca i32, align 4
  %8 = alloca ptr, align 8
  %9 = alloca ptr, align 8
  %10 = alloca i8, align 1
  %11 = alloca i32, align 4
  store ptr %0, ptr %6, align 8
  store i32 %1, ptr %7, align 4
  store ptr %2, ptr %8, align 8
  store ptr %3, ptr %9, align 8
  store i8 %4, ptr %10, align 1
  call void @llvm.lifetime.start.p0(i64 4, ptr %11) #4
  %12 = load ptr, ptr %9, align 8
  %13 = load i32, ptr %12, align 4
  store i32 %13, ptr %11, align 4
  %14 = load ptr, ptr %6, align 8
  %15 = load i32, ptr %7, align 4
  %16 = load ptr, ptr %8, align 8
  %17 = load i32, ptr %11, align 4
  %18 = load i8, ptr %10, align 1
  %19 = zext i8 %18 to i32
  %20 = call ptr @proto_tree_add_item(ptr noundef %14, i32 noundef %15, ptr noundef %16, i32 noundef %17, i32 noundef %19, i32 noundef 0)
  %21 = load i8, ptr %10, align 1
  %22 = zext i8 %21 to i32
  %23 = load ptr, ptr %9, align 8
  %24 = load i32, ptr %23, align 4
  %25 = add i32 %24, %22
  store i32 %25, ptr %23, align 4
  call void @llvm.lifetime.end.p0(i64 4, ptr %11) #4
  ret void
}

; Function Attrs: null_pointer_is_valid sspstrong uwtable
define internal i32 @dissect_rdm_pd_status_messages(ptr noundef %0, i32 noundef %1, ptr noundef %2, i8 noundef zeroext %3, i8 noundef zeroext %4) #1 {
  %6 = alloca ptr, align 8
  %7 = alloca i32, align 4
  %8 = alloca ptr, align 8
  %9 = alloca i8, align 1
  %10 = alloca i8, align 1
  store ptr %0, ptr %6, align 8
  store i32 %1, ptr %7, align 4
  store ptr %2, ptr %8, align 8
  store i8 %3, ptr %9, align 1
  store i8 %4, ptr %10, align 1
  %11 = load i8, ptr %9, align 1
  %12 = zext i8 %11 to i32
  switch i32 %12, label %43 [
    i32 32, label %13
    i32 33, label %17
  ]

13:                                               ; preds = %5
  %14 = load ptr, ptr %8, align 8
  %15 = load i32, ptr @hf_rdm_pd_status_messages_type, align 4
  %16 = load ptr, ptr %6, align 8
  call void @rdm_proto_tree_add_numeric_item(ptr noundef %14, i32 noundef %15, ptr noundef %16, ptr noundef %7, i8 noundef zeroext 1)
  br label %43

17:                                               ; preds = %5
  br label %18

18:                                               ; preds = %22, %17
  %19 = load i8, ptr %10, align 1
  %20 = zext i8 %19 to i32
  %21 = icmp sge i32 %20, 9
  br i1 %21, label %22, label %42

22:                                               ; preds = %18
  %23 = load ptr, ptr %8, align 8
  %24 = load i32, ptr @hf_rdm_pd_status_messages_sub_device_id, align 4
  %25 = load ptr, ptr %6, align 8
  call void @rdm_proto_tree_add_numeric_item(ptr noundef %23, i32 noundef %24, ptr noundef %25, ptr noundef %7, i8 noundef zeroext 2)
  %26 = load ptr, ptr %8, align 8
  %27 = load i32, ptr @hf_rdm_pd_status_messages_type, align 4
  %28 = load ptr, ptr %6, align 8
  call void @rdm_proto_tree_add_numeric_item(ptr noundef %26, i32 noundef %27, ptr noundef %28, ptr noundef %7, i8 noundef zeroext 1)
  %29 = load ptr, ptr %8, align 8
  %30 = load i32, ptr @hf_rdm_pd_status_messages_id, align 4
  %31 = load ptr, ptr %6, align 8
  call void @rdm_proto_tree_add_numeric_item(ptr noundef %29, i32 noundef %30, ptr noundef %31, ptr noundef %7, i8 noundef zeroext 2)
  %32 = load ptr, ptr %8, align 8
  %33 = load i32, ptr @hf_rdm_pd_status_messages_data_value_1, align 4
  %34 = load ptr, ptr %6, align 8
  call void @rdm_proto_tree_add_numeric_item(ptr noundef %32, i32 noundef %33, ptr noundef %34, ptr noundef %7, i8 noundef zeroext 2)
  %35 = load ptr, ptr %8, align 8
  %36 = load i32, ptr @hf_rdm_pd_status_messages_data_value_2, align 4
  %37 = load ptr, ptr %6, align 8
  call void @rdm_proto_tree_add_numeric_item(ptr noundef %35, i32 noundef %36, ptr noundef %37, ptr noundef %7, i8 noundef zeroext 2)
  %38 = load i8, ptr %10, align 1
  %39 = zext i8 %38 to i32
  %40 = sub i32 %39, 9
  %41 = trunc i32 %40 to i8
  store i8 %41, ptr %10, align 1
  br label %18, !llvm.loop !9

42:                                               ; preds = %18
  br label %43

43:                                               ; preds = %5, %42, %13
  %44 = load i32, ptr %7, align 4
  ret i32 %44
}