; Function Attrs: null_pointer_is_valid sspstrong uwtable
define internal fastcc range(i32 9, 0) i32 @dissect_rdm_pd_status_messages(ptr noundef %0, ptr noundef %1, i8 noundef zeroext %2, i8 noundef zeroext %3) unnamed_addr #1 {
  switch i8 %2, label %.loopexit [
    i8 32, label %6
    i8 33, label %.preheader
  ]

.preheader:                                       ; preds = %4
  %5 = icmp ugt i8 %3, 8
  br i1 %5, label %.lr.ph, label %.loopexit

6:                                                ; preds = %4
  %7 = load i32, ptr @hf_rdm_pd_status_messages_type, align 4
  %8 = tail call ptr @proto_tree_add_item(ptr noundef %1, i32 noundef %7, ptr noundef %0, i32 noundef 23, i32 noundef 1, i32 noundef 0)
  br label %.loopexit

.lr.ph:                                           ; preds = %.preheader, %.lr.ph
  %.029 = phi i8 [ %24, %.lr.ph ], [ %3, %.preheader ]
  %.128 = phi i32 [ %23, %.lr.ph ], [ 23, %.preheader ]
  %9 = load i32, ptr @hf_rdm_pd_status_messages_sub_device_id, align 4
  %10 = tail call ptr @proto_tree_add_item(ptr noundef %1, i32 noundef %9, ptr noundef %0, i32 noundef %.128, i32 noundef 2, i32 noundef 0)
  %11 = add nuw nsw i32 %.128, 2
  %12 = load i32, ptr @hf_rdm_pd_status_messages_type, align 4
  %13 = tail call ptr @proto_tree_add_item(ptr noundef %1, i32 noundef %12, ptr noundef %0, i32 noundef %11, i32 noundef 1, i32 noundef 0)
  %14 = add nuw nsw i32 %.128, 3
  %15 = load i32, ptr @hf_rdm_pd_status_messages_id, align 4
  %16 = tail call ptr @proto_tree_add_item(ptr noundef %1, i32 noundef %15, ptr noundef %0, i32 noundef %14, i32 noundef 2, i32 noundef 0)
  %17 = add nuw nsw i32 %.128, 5
  %18 = load i32, ptr @hf_rdm_pd_status_messages_data_value_1, align 4
  %19 = tail call ptr @proto_tree_add_item(ptr noundef %1, i32 noundef %18, ptr noundef %0, i32 noundef %17, i32 noundef 2, i32 noundef 0)
  %20 = add nuw nsw i32 %.128, 7
  %21 = load i32, ptr @hf_rdm_pd_status_messages_data_value_2, align 4
  %22 = tail call ptr @proto_tree_add_item(ptr noundef %1, i32 noundef %21, ptr noundef %0, i32 noundef %20, i32 noundef 2, i32 noundef 0)
  %23 = add nuw nsw i32 %.128, 9
  %24 = add i8 %.029, -9
  %25 = icmp ugt i8 %24, 8
  br i1 %25, label %.lr.ph, label %.loopexit, !llvm.loop !8

.loopexit:                                        ; preds = %.lr.ph, %.preheader, %6, %4
  %.027 = phi i32 [ 23, %4 ], [ 24, %6 ], [ 23, %.preheader ], [ %23, %.lr.ph ]
  ret i32 %.027
}